; Function Attrs: nounwind uwtable
define dso_local void @DeleteRelationTuple(i32 noundef %0) local_unnamed_addr #0 {
  %2 = tail call ptr @table_open(i32 noundef 1259, i32 noundef 3) #11
  %3 = zext i32 %0 to i64
  %4 = tail call ptr @SearchSysCache1(i32 noundef 57, i64 noundef %3) #11
  %.not = icmp eq ptr %4, null
  br i1 %.not, label %5, label %8

5:                                                ; preds = %1
  %6 = tail call zeroext i1 @errstart_cold(i32 noundef 21, ptr noundef null) #10
  tail call void @llvm.assume(i1 %6)
  %7 = tail call i32 (ptr, ...) @errmsg_internal(ptr noundef nonnull @.str.21, i32 noundef %0) #11
  tail call void @errfinish(ptr noundef nonnull @.str.1, i32 noundef 1573, ptr noundef nonnull @__func__.DeleteRelationTuple) #11
  unreachable

8:                                                ; preds = %1
  %9 = getelementptr inbounds nuw i8, ptr %4, i64 4
  tail call void @CatalogTupleDelete(ptr noundef %2, ptr noundef nonnull %9) #11
  tail call void @ReleaseSysCache(ptr noundef nonnull %4) #11
  tail call void @table_close(ptr noundef %2, i32 noundef 3) #11
  ret void
}